target datalayout = "e-m:e-p270:32:32-p271:32:32-p272:64:64-i64:64-i128:128-f80:128-n8:16:32:64-S128"
target triple = "x86_64-unknown-linux-gnu"

%"class.base::SampleVectorIterator" = type { %"class.base::SampleCountIterator", ptr, i64, ptr, i64 }
%"class.base::SampleCountIterator" = type { ptr }

; Function Attrs: mustprogress nounwind uwtable
define dso_local noundef zeroext i1 @_ZNK4base20SampleVectorIterator14GetBucketIndexEPm(ptr noundef nonnull align 8 dereferenceable(40) %this, ptr noundef %index) unnamed_addr #2 align 2 {
entry:
  %this.addr = alloca ptr, align 8
  %index.addr = alloca ptr, align 8
  store ptr %this, ptr %this.addr, align 8
  store ptr %index, ptr %index.addr, align 8
  %this1 = load ptr, ptr %this.addr, align 8
  %0 = load ptr, ptr %index.addr, align 8
  %cmp = icmp ne ptr %0, null
  br i1 %cmp, label %if.then, label %if.end

if.then:                                          ; preds = %entry
  %index_ = getelementptr inbounds %"class.base::SampleVectorIterator", ptr %this1, i32 0, i32 4
  %1 = load i64, ptr %index_, align 8
  %2 = load ptr, ptr %index.addr, align 8
  store i64 %1, ptr %2, align 8
  br label %if.end

if.end:                                           ; preds = %if.then, %entry
  ret i1 true
}