; Function Attrs: mustprogress nofree norecurse nosync nounwind willreturn memory(argmem: readwrite) uwtable
define dso_local noundef zeroext i1 @_ZNK4base20SampleVectorIterator14GetBucketIndexEPm(ptr nocapture noundef nonnull readonly align 8 dereferenceable(40) %this, ptr noundef writeonly %index) unnamed_addr #9 align 2 {
entry:
  %cmp.not = icmp eq ptr %index, null
  br i1 %cmp.not, label %if.end, label %if.then

if.then:                                          ; preds = %entry
  %index_ = getelementptr inbounds i8, ptr %this, i64 32
  %0 = load i64, ptr %index_, align 8
  store i64 %0, ptr %index, align 8
  br label %if.end

if.end:                                           ; preds = %if.then, %entry
  ret i1 true
}